; Function Attrs: mustprogress nounwind uwtable
define dso_local void @_ZN5clang5arcmt16TransformActions10reportNoteEN4llvm9StringRefENS_14SourceLocationENS_11SourceRangeE(ptr noundef nonnull readonly align 8 captures(none) dereferenceable(24) %0, ptr %1, i64 %2, i32 %3, i64 %4) local_unnamed_addr #3 align 2 {
  %6 = alloca %"class.clang::DiagnosticBuilder", align 8
  call void @_ZN5clang5arcmt16TransformActions6reportENS_14SourceLocationEjNS_11SourceRangeE(ptr dead_on_unwind nonnull writable sret(%"class.clang::DiagnosticBuilder") align 8 %6, ptr noundef nonnull align 8 dereferenceable(24) %0, i32 %3, i32 noundef 112, i64 %4)
  call void @_ZNK5clang19StreamingDiagnostic9AddStringEN4llvm9StringRefE(ptr noundef nonnull align 8 dereferenceable(26) %6, ptr %1, i64 %2)
  %7 = getelementptr inbounds nuw i8, ptr %6, i64 24
  %8 = load i8, ptr %7, align 8
  %9 = trunc i8 %8 to i1
  br i1 %9, label %10, label %_ZN5clang17DiagnosticBuilder4EmitEv.exit.i

10:                                               ; preds = %5
  %11 = getelementptr inbounds nuw i8, ptr %6, i64 16
  %12 = load ptr, ptr %11, align 8
  %13 = getelementptr inbounds nuw i8, ptr %6, i64 25
  %14 = load i8, ptr %13, align 1
  %15 = trunc i8 %14 to i1
  %16 = call noundef zeroext i1 @_ZN5clang17DiagnosticsEngine21EmitCurrentDiagnosticEb(ptr noundef nonnull align 8 dereferenceable(1304) %12, i1 noundef zeroext %15) #21
  store ptr null, ptr %11, align 8
  store i8 0, ptr %7, align 8
  store i8 0, ptr %13, align 1
  br label %_ZN5clang17DiagnosticBuilder4EmitEv.exit.i

_ZN5clang17DiagnosticBuilder4EmitEv.exit.i:       ; preds = %10, %5
  %17 = load ptr, ptr %6, align 8
  %.not.i.i.i = icmp eq ptr %17, null
  br i1 %.not.i.i.i, label %_ZN5clang17DiagnosticBuilderD2Ev.exit, label %18

18:                                               ; preds = %_ZN5clang17DiagnosticBuilder4EmitEv.exit.i
  %19 = getelementptr inbounds nuw i8, ptr %6, i64 8
  %20 = load ptr, ptr %19, align 8
  %.not.i.i.i.i = icmp eq ptr %20, null
  br i1 %.not.i.i.i.i, label %_ZN5clang17DiagnosticBuilderD2Ev.exit, label %21

21:                                               ; preds = %18
  %22 = icmp uge ptr %17, %20
  %23 = getelementptr inbounds nuw i8, ptr %20, i64 14848
  %24 = icmp ule ptr %17, %23
  %or.cond.i.i.i.i.i = select i1 %22, i1 %24, i1 false
  br i1 %or.cond.i.i.i.i.i, label %25, label %31

25:                                               ; preds = %21
  %26 = getelementptr inbounds nuw i8, ptr %20, i64 14976
  %27 = load i32, ptr %26, align 8
  %28 = add i32 %27, 1
  store i32 %28, ptr %26, align 8
  %29 = zext i32 %27 to i64
  %30 = getelementptr inbounds nuw [16 x ptr], ptr %23, i64 0, i64 %29
  store ptr %17, ptr %30, align 8
  br label %_ZN5clang17DiagnosticBuilderD2Ev.exit

31:                                               ; preds = %21
  call void @_ZN5clang17DiagnosticStorageD2Ev(ptr noundef nonnull align 8 dereferenceable(928) %17) #21
  call void @_ZdlPvm(ptr noundef nonnull %17, i64 noundef 928) #22
  br label %_ZN5clang17DiagnosticBuilderD2Ev.exit

_ZN5clang17DiagnosticBuilderD2Ev.exit:            ; preds = %25, %31, %_ZN5clang17DiagnosticBuilder4EmitEv.exit.i, %18
  ret void
}